EXPORTS 
	??_R0?AURaceError@@@8 	 DATA
	??_R0?AURegistrationError@@@8 	 DATA
	??_R0?AV?$_Ref_count_obj2@VBoots@@@std@@@8 	 DATA
	??_R0?AV?$_Ref_count_obj2@VBroom@@@std@@@8 	 DATA
	??_R0?AV?$_Ref_count_obj2@VCamel@@@std@@@8 	 DATA
	??_R0?AV?$_Ref_count_obj2@VCarpet@@@std@@@8 	 DATA
	??_R0?AV?$_Ref_count_obj2@VCentaur@@@std@@@8 	 DATA
	??_R0?AV?$_Ref_count_obj2@VEagle@@@std@@@8 	 DATA
	??_R0?AV?$_Ref_count_obj2@VFastCamel@@@std@@@8 	 DATA
	??_R0?AVAirTransport@@@8 	 DATA
	??_R0?AVBoots@@@8 	 DATA
	??_R0?AVBroom@@@8 	 DATA
	??_R0?AVCamel@@@8 	 DATA
	??_R0?AVCarpet@@@8 	 DATA
	??_R0?AVCentaur@@@8 	 DATA
	??_R0?AVEagle@@@8 	 DATA
	??_R0?AVFastCamel@@@8 	 DATA
	??_R0?AVLandTransport@@@8 	 DATA
	??_R0?AVTransport@@@8 	 DATA
	??_R0?AV_Ref_count_base@std@@@8 	 DATA
	??_R0?AVbad_alloc@std@@@8 	 DATA
	??_R0?AVbad_array_new_length@std@@@8 	 DATA
	??_R0?AVexception@std@@@8 	 DATA
	??_R0?AVlogic_error@std@@@8 	 DATA
	??$?0$$V@?$_Compressed_pair@V?$allocator@D@std@@V?$_String_val@U?$_Simple_types@D@std@@@2@$00@std@@QEAA@U_Zero_then_variadic_args_t@1@@Z
	??$?0$$V@?$_Compressed_pair@V?$allocator@U?$pair@V?$basic_string@DU?$char_traits@D@std@@V?$allocator@D@2@@std@@N@std@@@std@@V?$_Vector_val@U?$_Simple_types@U?$pair@V?$basic_string@DU?$char_traits@D@std@@V?$allocator@D@2@@std@@N@std@@@std@@@2@$00@std@@QEAA@U_Zero_then_variadic_args_t@1@@Z
	??$?0$$V@?$_Compressed_pair@V?$allocator@V?$shared_ptr@VTransport@@@std@@@std@@V?$_Vector_val@U?$_Simple_types@V?$shared_ptr@VTransport@@@std@@@std@@@2@$00@std@@QEAA@U_Zero_then_variadic_args_t@1@@Z
	??$?0$$V@?$_Ref_count_obj2@VBoots@@@std@@QEAA@XZ
	??$?0$$V@?$_Ref_count_obj2@VBroom@@@std@@QEAA@XZ
	??$?0$$V@?$_Ref_count_obj2@VCamel@@@std@@QEAA@XZ
	??$?0$$V@?$_Ref_count_obj2@VCarpet@@@std@@QEAA@XZ
	??$?0$$V@?$_Ref_count_obj2@VCentaur@@@std@@QEAA@XZ
	??$?0$$V@?$_Ref_count_obj2@VEagle@@@std@@QEAA@XZ
	??$?0$$V@?$_Ref_count_obj2@VFastCamel@@@std@@QEAA@XZ
	??$?0AEAPEAU?$pair@V?$basic_string@DU?$char_traits@D@std@@V?$allocator@D@2@@std@@N@std@@AEAPEAU01@$0A@@?$pair@PEAU?$pair@V?$basic_string@DU?$char_traits@D@std@@V?$allocator@D@2@@std@@N@std@@PEAU12@@std@@QEAA@AEAPEAU?$pair@V?$basic_string@DU?$char_traits@D@std@@V?$allocator@D@2@@std@@N@1@0@Z
	??$?0AEBV?$allocator@V?$basic_string@DU?$char_traits@D@std@@V?$allocator@D@2@@std@@@std@@$$V@?$_Compressed_pair@V?$allocator@V?$basic_string@DU?$char_traits@D@std@@V?$allocator@D@2@@std@@@std@@V?$_Vector_val@U?$_Simple_types@V?$basic_string@DU?$char_traits@D@std@@V?$allocator@D@2@@std@@@std@@@2@$00@std@@QEAA@U_One_then_variadic_args_t@1@AEBV?$allocator@V?$basic_string@DU?$char_traits@D@std@@V?$allocator@D@2@@std@@@1@@Z
	??$?0D@?$allocator@U_Container_proxy@std@@@std@@QEAA@AEBV?$allocator@D@1@@Z
	??$?0U?$pair@V?$basic_string@DU?$char_traits@D@std@@V?$allocator@D@2@@std@@N@std@@@?$allocator@U_Container_proxy@std@@@std@@QEAA@AEBV?$allocator@U?$pair@V?$basic_string@DU?$char_traits@D@std@@V?$allocator@D@2@@std@@N@std@@@1@@Z
	??$?0V?$allocator@D@std@@$$V@?$_Compressed_pair@V?$allocator@D@std@@V?$_String_val@U?$_Simple_types@D@std@@@2@$00@std@@QEAA@U_One_then_variadic_args_t@1@$$QEAV?$allocator@D@1@@Z
	??$?0V?$allocator@U?$pair@V?$basic_string@DU?$char_traits@D@std@@V?$allocator@D@2@@std@@N@std@@@std@@PEAU?$pair@V?$basic_string@DU?$char_traits@D@std@@V?$allocator@D@2@@std@@N@1@PEAU21@PEAU21@@?$_Compressed_pair@V?$allocator@U?$pair@V?$basic_string@DU?$char_traits@D@std@@V?$allocator@D@2@@std@@N@std@@@std@@V?$_Vector_val@U?$_Simple_types@U?$pair@V?$basic_string@DU?$char_traits@D@std@@V?$allocator@D@2@@std@@N@std@@@std@@@2@$00@std@@QEAA@U_One_then_variadic_args_t@1@$$QEAV?$allocator@U?$pair@V?$basic_string@DU?$char_traits@D@std@@V?$allocator@D@2@@std@@N@std@@@1@$$QEAPEAU?$pair@V?$basic_string@DU?$char_traits@D@std@@V?$allocator@D@2@@std@@N@1@22@Z
	??$?0V?$allocator@V?$basic_string@DU?$char_traits@D@std@@V?$allocator@D@2@@std@@@std@@$$V@?$_Compressed_pair@V?$allocator@V?$basic_string@DU?$char_traits@D@std@@V?$allocator@D@2@@std@@@std@@V?$_Vector_val@U?$_Simple_types@V?$basic_string@DU?$char_traits@D@std@@V?$allocator@D@2@@std@@@std@@@2@$00@std@@QEAA@U_One_then_variadic_args_t@1@$$QEAV?$allocator@V?$basic_string@DU?$char_traits@D@std@@V?$allocator@D@2@@std@@@1@@Z
	??$?0V?$basic_string@DU?$char_traits@D@std@@V?$allocator@D@2@@std@@@?$allocator@U_Container_proxy@std@@@std@@QEAA@AEBV?$allocator@V?$basic_string@DU?$char_traits@D@std@@V?$allocator@D@2@@std@@@1@@Z
	??$?0V?$basic_string@DU?$char_traits@D@std@@V?$allocator@D@2@@std@@N$0A@@?$pair@V?$basic_string@DU?$char_traits@D@std@@V?$allocator@D@2@@std@@N@std@@QEAA@$$QEAV?$basic_string@DU?$char_traits@D@std@@V?$allocator@D@2@@1@$$QEAN@Z
	??$?0V?$shared_ptr@VTransport@@@std@@@?$allocator@U_Container_proxy@std@@@std@@QEAA@AEBV?$allocator@V?$shared_ptr@VTransport@@@std@@@1@@Z
	??$?0VBoots@@$0A@@?$shared_ptr@VTransport@@@std@@QEAA@$$QEAV?$shared_ptr@VBoots@@@1@@Z
	??$?0VBroom@@$0A@@?$shared_ptr@VTransport@@@std@@QEAA@$$QEAV?$shared_ptr@VBroom@@@1@@Z
	??$?0VCamel@@$0A@@?$shared_ptr@VTransport@@@std@@QEAA@$$QEAV?$shared_ptr@VCamel@@@1@@Z
	??$?0VCarpet@@$0A@@?$shared_ptr@VTransport@@@std@@QEAA@$$QEAV?$shared_ptr@VCarpet@@@1@@Z
	??$?0VCentaur@@$0A@@?$shared_ptr@VTransport@@@std@@QEAA@$$QEAV?$shared_ptr@VCentaur@@@1@@Z
	??$?0VEagle@@$0A@@?$shared_ptr@VTransport@@@std@@QEAA@$$QEAV?$shared_ptr@VEagle@@@1@@Z
	??$?0VFastCamel@@$0A@@?$shared_ptr@VTransport@@@std@@QEAA@$$QEAV?$shared_ptr@VFastCamel@@@1@@Z
	??$?4U?$pair@V?$basic_string@DU?$char_traits@D@std@@V?$allocator@D@2@@std@@N@std@@$0A@@?$pair@V?$basic_string@DU?$char_traits@D@std@@V?$allocator@D@2@@std@@N@std@@QEAAAEAU01@$$QEAU01@@Z
	??$?8DD@std@@YA_NAEBV?$allocator@D@0@0@Z
	??$?8DU?$char_traits@D@std@@V?$allocator@D@1@@std@@YA_NAEBV?$basic_string@DU?$char_traits@D@std@@V?$allocator@D@2@@0@0@Z
	??$?CVTransport@@$0A@@?$shared_ptr@VTransport@@@std@@QEBAPEAVTransport@@XZ
	??$_Adl_verify_range@V?$_Vector_iterator@V?$_Vector_val@U?$_Simple_types@U?$pair@V?$basic_string@DU?$char_traits@D@std@@V?$allocator@D@2@@std@@N@std@@@std@@@std@@@std@@V12@@std@@YAXAEBV?$_Vector_iterator@V?$_Vector_val@U?$_Simple_types@U?$pair@V?$basic_string@DU?$char_traits@D@std@@V?$allocator@D@2@@std@@N@std@@@std@@@std@@@0@0@Z
	??$_Alloc_proxy@V?$allocator@U_Container_proxy@std@@@std@@@_Container_base12@std@@QEAAX$$QEAV?$allocator@U_Container_proxy@std@@@1@@Z
	??$_Allocate@$0BA@U_Default_allocate_traits@std@@$0A@@std@@YAPEAX_K@Z
	??$_Allocate_at_least_helper@V?$allocator@D@std@@@std@@YAPEADAEAV?$allocator@D@0@AEA_K@Z
	??$_Allocate_at_least_helper@V?$allocator@U?$pair@V?$basic_string@DU?$char_traits@D@std@@V?$allocator@D@2@@std@@N@std@@@std@@@std@@YAPEAU?$pair@V?$basic_string@DU?$char_traits@D@std@@V?$allocator@D@2@@std@@N@0@AEAV?$allocator@U?$pair@V?$basic_string@DU?$char_traits@D@std@@V?$allocator@D@2@@std@@N@std@@@0@AEA_K@Z
	??$_Allocate_at_least_helper@V?$allocator@V?$basic_string@DU?$char_traits@D@std@@V?$allocator@D@2@@std@@@std@@@std@@YAPEAV?$basic_string@DU?$char_traits@D@std@@V?$allocator@D@2@@0@AEAV?$allocator@V?$basic_string@DU?$char_traits@D@std@@V?$allocator@D@2@@std@@@0@AEA_K@Z
	??$_Allocate_at_least_helper@V?$allocator@V?$shared_ptr@VTransport@@@std@@@std@@@std@@YAPEAV?$shared_ptr@VTransport@@@0@AEAV?$allocator@V?$shared_ptr@VTransport@@@std@@@0@AEA_K@Z
	??$_Allocate_for_capacity@$0A@@?$basic_string@DU?$char_traits@D@std@@V?$allocator@D@2@@std@@CAPEADAEAV?$allocator@D@1@AEA_K@Z
	??$_Allocate_manually_vector_aligned@U_Default_allocate_traits@std@@@std@@YAPEAX_K@Z
	??$_Construct@$00PEBD@?$basic_string@DU?$char_traits@D@std@@V?$allocator@D@2@@std@@AEAAXQEBD_K@Z
	??$_Construct@$01PEBD@?$basic_string@DU?$char_traits@D@std@@V?$allocator@D@2@@std@@AEAAXQEBD_K@Z
	??$_Construct_in_place@PEADAEAPEAD@std@@YAXAEAPEAD0@Z
	??$_Construct_in_place@PEADAEBQEAD@std@@YAXAEAPEADAEBQEAD@Z
	??$_Construct_in_place@U?$pair@V?$basic_string@DU?$char_traits@D@std@@V?$allocator@D@2@@std@@N@std@@V?$basic_string@DU?$char_traits@D@std@@V?$allocator@D@2@@2@N@std@@YAXAEAU?$pair@V?$basic_string@DU?$char_traits@D@std@@V?$allocator@D@2@@std@@N@0@$$QEAV?$basic_string@DU?$char_traits@D@std@@V?$allocator@D@2@@0@$$QEAN@Z
	??$_Construct_in_place@U_Container_proxy@std@@PEAU_Container_base12@2@@std@@YAXAEAU_Container_proxy@0@$$QEAPEAU_Container_base12@0@@Z
	??$_Construct_in_place@V?$shared_ptr@VTransport@@@std@@AEBV12@@std@@YAXAEAV?$shared_ptr@VTransport@@@0@AEBV10@@Z
	??$_Construct_in_place@VBoots@@$$V@std@@YAXAEAVBoots@@@Z
	??$_Construct_in_place@VBroom@@$$V@std@@YAXAEAVBroom@@@Z
	??$_Construct_in_place@VCamel@@$$V@std@@YAXAEAVCamel@@@Z
	??$_Construct_in_place@VCarpet@@$$V@std@@YAXAEAVCarpet@@@Z
	??$_Construct_in_place@VCentaur@@$$V@std@@YAXAEAVCentaur@@@Z
	??$_Construct_in_place@VEagle@@$$V@std@@YAXAEAVEagle@@@Z
	??$_Construct_in_place@VFastCamel@@$$V@std@@YAXAEAVFastCamel@@@Z
	??$_Construct_n@AEBQEAV?$basic_string@DU?$char_traits@D@std@@V?$allocator@D@2@@std@@AEBQEAV12@@?$vector@V?$basic_string@DU?$char_traits@D@std@@V?$allocator@D@2@@std@@V?$allocator@V?$basic_string@DU?$char_traits@D@std@@V?$allocator@D@2@@std@@@2@@std@@AEAAX_KAEBQEAV?$basic_string@DU?$char_traits@D@std@@V?$allocator@D@2@@1@1@Z
	??$_Construct_n@PEBV?$basic_string@DU?$char_traits@D@std@@V?$allocator@D@2@@std@@PEBV12@@?$vector@V?$basic_string@DU?$char_traits@D@std@@V?$allocator@D@2@@std@@V?$allocator@V?$basic_string@DU?$char_traits@D@std@@V?$allocator@D@2@@std@@@2@@std@@AEAAX_K$$QEAPEBV?$basic_string@DU?$char_traits@D@std@@V?$allocator@D@2@@1@1@Z
	??$_Convert_size@_K_K@std@@YA_K_K@Z
	??$_Copy_construct_from@VTransport@@@?$_Ptr_base@VTransport@@@std@@IEAAXAEBV?$shared_ptr@VTransport@@@1@@Z
	??$_Deallocate@$0BA@$0A@@std@@YAXPEAX_K@Z
	??$_Deallocate_plain@V?$allocator@U_Container_proxy@std@@@std@@@std@@YAXAEAV?$allocator@U_Container_proxy@std@@@0@QEAU_Container_proxy@0@@Z
	??$_Delete_plain_internal@V?$allocator@U_Container_proxy@std@@@std@@@std@@YAXAEAV?$allocator@U_Container_proxy@std@@@0@QEAU_Container_proxy@0@@Z
	??$_Destroy_in_place@PEAD@std@@YAXAEAPEAD@Z
	??$_Destroy_in_place@VBoots@@@std@@YAXAEAVBoots@@@Z
	??$_Destroy_in_place@VBroom@@@std@@YAXAEAVBroom@@@Z
	??$_Destroy_in_place@VCamel@@@std@@YAXAEAVCamel@@@Z
	??$_Destroy_in_place@VCarpet@@@std@@YAXAEAVCarpet@@@Z
	??$_Destroy_in_place@VCentaur@@@std@@YAXAEAVCentaur@@@Z
	??$_Destroy_in_place@VEagle@@@std@@YAXAEAVEagle@@@Z
	??$_Destroy_in_place@VFastCamel@@@std@@YAXAEAVFastCamel@@@Z
	??$_Destroy_range@V?$allocator@U?$pair@V?$basic_string@DU?$char_traits@D@std@@V?$allocator@D@2@@std@@N@std@@@std@@@std@@YAXPEAU?$pair@V?$basic_string@DU?$char_traits@D@std@@V?$allocator@D@2@@std@@N@0@QEAU10@AEAV?$allocator@U?$pair@V?$basic_string@DU?$char_traits@D@std@@V?$allocator@D@2@@std@@N@std@@@0@@Z
	??$_Destroy_range@V?$allocator@V?$basic_string@DU?$char_traits@D@std@@V?$allocator@D@2@@std@@@std@@@std@@YAXPEAV?$basic_string@DU?$char_traits@D@std@@V?$allocator@D@2@@0@QEAV10@AEAV?$allocator@V?$basic_string@DU?$char_traits@D@std@@V?$allocator@D@2@@std@@@0@@Z
	??$_Destroy_range@V?$allocator@V?$shared_ptr@VTransport@@@std@@@std@@@std@@YAXPEAV?$shared_ptr@VTransport@@@0@QEAV10@AEAV?$allocator@V?$shared_ptr@VTransport@@@std@@@0@@Z
	??$_Emplace_back@AEAV?$basic_string@DU?$char_traits@D@std@@V?$allocator@D@2@@std@@@?$_Uninitialized_backout_al@V?$allocator@V?$basic_string@DU?$char_traits@D@std@@V?$allocator@D@2@@std@@@std@@@std@@QEAAXAEAV?$basic_string@DU?$char_traits@D@std@@V?$allocator@D@2@@1@@Z
	??$_Emplace_back@AEBV?$basic_string@DU?$char_traits@D@std@@V?$allocator@D@2@@std@@@?$_Uninitialized_backout_al@V?$allocator@V?$basic_string@DU?$char_traits@D@std@@V?$allocator@D@2@@std@@@std@@@std@@QEAAXAEBV?$basic_string@DU?$char_traits@D@std@@V?$allocator@D@2@@1@@Z
	??$_Emplace_back@U?$pair@V?$basic_string@DU?$char_traits@D@std@@V?$allocator@D@2@@std@@N@std@@@?$_Uninitialized_backout_al@V?$allocator@U?$pair@V?$basic_string@DU?$char_traits@D@std@@V?$allocator@D@2@@std@@N@std@@@std@@@std@@QEAAX$$QEAU?$pair@V?$basic_string@DU?$char_traits@D@std@@V?$allocator@D@2@@std@@N@1@@Z
	??$_Emplace_back@V?$shared_ptr@VTransport@@@std@@@?$_Uninitialized_backout_al@V?$allocator@V?$shared_ptr@VTransport@@@std@@@std@@@std@@QEAAX$$QEAV?$shared_ptr@VTransport@@@1@@Z
	??$_Emplace_back_with_unused_capacity@AEBV?$shared_ptr@VTransport@@@std@@@?$vector@V?$shared_ptr@VTransport@@@std@@V?$allocator@V?$shared_ptr@VTransport@@@std@@@2@@std@@AEAAAEAV?$shared_ptr@VTransport@@@1@AEBV21@@Z
	??$_Emplace_back_with_unused_capacity@V?$basic_string@DU?$char_traits@D@std@@V?$allocator@D@2@@std@@N@?$vector@U?$pair@V?$basic_string@DU?$char_traits@D@std@@V?$allocator@D@2@@std@@N@std@@V?$allocator@U?$pair@V?$basic_string@DU?$char_traits@D@std@@V?$allocator@D@2@@std@@N@std@@@2@@std@@AEAAAEAU?$pair@V?$basic_string@DU?$char_traits@D@std@@V?$allocator@D@2@@std@@N@1@$$QEAV?$basic_string@DU?$char_traits@D@std@@V?$allocator@D@2@@1@$$QEAN@Z
	??$_Emplace_one_at_back@AEBV?$shared_ptr@VTransport@@@std@@@?$vector@V?$shared_ptr@VTransport@@@std@@V?$allocator@V?$shared_ptr@VTransport@@@std@@@2@@std@@AEAAAEAV?$shared_ptr@VTransport@@@1@AEBV21@@Z
	??$_Emplace_one_at_back@V?$basic_string@DU?$char_traits@D@std@@V?$allocator@D@2@@std@@N@?$vector@U?$pair@V?$basic_string@DU?$char_traits@D@std@@V?$allocator@D@2@@std@@N@std@@V?$allocator@U?$pair@V?$basic_string@DU?$char_traits@D@std@@V?$allocator@D@2@@std@@N@std@@@2@@std@@AEAAAEAU?$pair@V?$basic_string@DU?$char_traits@D@std@@V?$allocator@D@2@@std@@N@1@$$QEAV?$basic_string@DU?$char_traits@D@std@@V?$allocator@D@2@@1@$$QEAN@Z
	??$_Emplace_reallocate@AEBV?$shared_ptr@VTransport@@@std@@@?$vector@V?$shared_ptr@VTransport@@@std@@V?$allocator@V?$shared_ptr@VTransport@@@std@@@2@@std@@AEAAPEAV?$shared_ptr@VTransport@@@1@QEAV21@AEBV21@@Z
	??$_Emplace_reallocate@V?$basic_string@DU?$char_traits@D@std@@V?$allocator@D@2@@std@@N@?$vector@U?$pair@V?$basic_string@DU?$char_traits@D@std@@V?$allocator@D@2@@std@@N@std@@V?$allocator@U?$pair@V?$basic_string@DU?$char_traits@D@std@@V?$allocator@D@2@@std@@N@std@@@2@@std@@AEAAPEAU?$pair@V?$basic_string@DU?$char_traits@D@std@@V?$allocator@D@2@@std@@N@1@QEAU21@$$QEAV?$basic_string@DU?$char_traits@D@std@@V?$allocator@D@2@@1@$$QEAN@Z
	??$_Get_size_of_n@$00@std@@YA_K_K@Z
	??$_Get_size_of_n@$0BA@@std@@YA_K_K@Z
	??$_Get_size_of_n@$0CI@@std@@YA_K_K@Z
	??$_Get_size_of_n@$0DA@@std@@YA_K_K@Z
	??$_Get_unwrapped@AEBQEAU?$pair@V?$basic_string@DU?$char_traits@D@std@@V?$allocator@D@2@@std@@N@std@@@std@@YA?A_TAEBQEAU?$pair@V?$basic_string@DU?$char_traits@D@std@@V?$allocator@D@2@@std@@N@0@@Z
	??$_Get_unwrapped@AEBQEAV?$shared_ptr@VTransport@@@std@@@std@@YA?A_TAEBQEAV?$shared_ptr@VTransport@@@0@@Z
	??$_Get_unwrapped@AEBV?$_Vector_iterator@V?$_Vector_val@U?$_Simple_types@U?$pair@V?$basic_string@DU?$char_traits@D@std@@V?$allocator@D@2@@std@@N@std@@@std@@@std@@@std@@@std@@YA?A_TAEBV?$_Vector_iterator@V?$_Vector_val@U?$_Simple_types@U?$pair@V?$basic_string@DU?$char_traits@D@std@@V?$allocator@D@2@@std@@N@std@@@std@@@std@@@0@@Z
	??$_Get_unwrapped@PEAV?$basic_string@DU?$char_traits@D@std@@V?$allocator@D@2@@std@@@std@@YA?A_T$$QEAPEAV?$basic_string@DU?$char_traits@D@std@@V?$allocator@D@2@@0@@Z
	??$_Get_unwrapped@PEBV?$basic_string@DU?$char_traits@D@std@@V?$allocator@D@2@@std@@@std@@YA?A_T$$QEAPEBV?$basic_string@DU?$char_traits@D@std@@V?$allocator@D@2@@0@@Z
	??$_Move_backward_unchecked@PEAU?$pair@V?$basic_string@DU?$char_traits@D@std@@V?$allocator@D@2@@std@@N@std@@PEAU12@@std@@YAPEAU?$pair@V?$basic_string@DU?$char_traits@D@std@@V?$allocator@D@2@@std@@N@0@PEAU10@00@Z
	??$_Move_construct_from@VBoots@@@?$_Ptr_base@VBoots@@@std@@IEAAX$$QEAV01@@Z
	??$_Move_construct_from@VBoots@@@?$_Ptr_base@VTransport@@@std@@IEAAX$$QEAV?$_Ptr_base@VBoots@@@1@@Z
	??$_Move_construct_from@VBroom@@@?$_Ptr_base@VBroom@@@std@@IEAAX$$QEAV01@@Z
	??$_Move_construct_from@VBroom@@@?$_Ptr_base@VTransport@@@std@@IEAAX$$QEAV?$_Ptr_base@VBroom@@@1@@Z
	??$_Move_construct_from@VCamel@@@?$_Ptr_base@VCamel@@@std@@IEAAX$$QEAV01@@Z
	??$_Move_construct_from@VCamel@@@?$_Ptr_base@VTransport@@@std@@IEAAX$$QEAV?$_Ptr_base@VCamel@@@1@@Z
	??$_Move_construct_from@VCarpet@@@?$_Ptr_base@VCarpet@@@std@@IEAAX$$QEAV01@@Z
	??$_Move_construct_from@VCarpet@@@?$_Ptr_base@VTransport@@@std@@IEAAX$$QEAV?$_Ptr_base@VCarpet@@@1@@Z
	??$_Move_construct_from@VCentaur@@@?$_Ptr_base@VCentaur@@@std@@IEAAX$$QEAV01@@Z
	??$_Move_construct_from@VCentaur@@@?$_Ptr_base@VTransport@@@std@@IEAAX$$QEAV?$_Ptr_base@VCentaur@@@1@@Z
	??$_Move_construct_from@VEagle@@@?$_Ptr_base@VEagle@@@std@@IEAAX$$QEAV01@@Z
	??$_Move_construct_from@VEagle@@@?$_Ptr_base@VTransport@@@std@@IEAAX$$QEAV?$_Ptr_base@VEagle@@@1@@Z
	??$_Move_construct_from@VFastCamel@@@?$_Ptr_base@VFastCamel@@@std@@IEAAX$$QEAV01@@Z
	??$_Move_construct_from@VFastCamel@@@?$_Ptr_base@VTransport@@@std@@IEAAX$$QEAV?$_Ptr_base@VFastCamel@@@1@@Z
	??$_Move_construct_from@VTransport@@@?$_Ptr_base@VTransport@@@std@@IEAAX$$QEAV01@@Z
	??$_Next_iter@PEAU?$pair@V?$basic_string@DU?$char_traits@D@std@@V?$allocator@D@2@@std@@N@std@@@std@@YAPEAU?$pair@V?$basic_string@DU?$char_traits@D@std@@V?$allocator@D@2@@std@@N@0@PEAU10@@Z
	??$_Pocma@V?$allocator@D@std@@@std@@YAXAEAV?$allocator@D@0@0@Z
	??$_Pocs@V?$allocator@D@std@@@std@@YAXAEAV?$allocator@D@0@0@Z
	??$_Prev_iter@PEAU?$pair@V?$basic_string@DU?$char_traits@D@std@@V?$allocator@D@2@@std@@N@std@@@std@@YAPEAU?$pair@V?$basic_string@DU?$char_traits@D@std@@V?$allocator@D@2@@std@@N@0@PEAU10@@Z
	??$_Set_ptr_rep_and_enable_shared@VBoots@@@?$shared_ptr@VBoots@@@std@@AEAAXQEAVBoots@@QEAV_Ref_count_base@1@@Z
	??$_Set_ptr_rep_and_enable_shared@VBroom@@@?$shared_ptr@VBroom@@@std@@AEAAXQEAVBroom@@QEAV_Ref_count_base@1@@Z
	??$_Set_ptr_rep_and_enable_shared@VCamel@@@?$shared_ptr@VCamel@@@std@@AEAAXQEAVCamel@@QEAV_Ref_count_base@1@@Z
	??$_Set_ptr_rep_and_enable_shared@VCarpet@@@?$shared_ptr@VCarpet@@@std@@AEAAXQEAVCarpet@@QEAV_Ref_count_base@1@@Z
	??$_Set_ptr_rep_and_enable_shared@VCentaur@@@?$shared_ptr@VCentaur@@@std@@AEAAXQEAVCentaur@@QEAV_Ref_count_base@1@@Z
	??$_Set_ptr_rep_and_enable_shared@VEagle@@@?$shared_ptr@VEagle@@@std@@AEAAXQEAVEagle@@QEAV_Ref_count_base@1@@Z
	??$_Set_ptr_rep_and_enable_shared@VFastCamel@@@?$shared_ptr@VFastCamel@@@std@@AEAAXQEAVFastCamel@@QEAV_Ref_count_base@1@@Z
	??$_Traits_equal@U?$char_traits@D@std@@@std@@YA_NQEBD_K01@Z
	??$_Unfancy@D@std@@YAPEADPEAD@Z
	??$_Unfancy@U?$pair@V?$basic_string@DU?$char_traits@D@std@@V?$allocator@D@2@@std@@N@std@@@std@@YAPEAU?$pair@V?$basic_string@DU?$char_traits@D@std@@V?$allocator@D@2@@std@@N@0@PEAU10@@Z
	??$_Unfancy@U_Container_proxy@std@@@std@@YAPEAU_Container_proxy@0@PEAU10@@Z
	??$_Unfancy@V?$basic_string@DU?$char_traits@D@std@@V?$allocator@D@2@@std@@@std@@YAPEAV?$basic_string@DU?$char_traits@D@std@@V?$allocator@D@2@@0@PEAV10@@Z
	??$_Unfancy@V?$shared_ptr@VTransport@@@std@@@std@@YAPEAV?$shared_ptr@VTransport@@@0@PEAV10@@Z
	??$_Uninitialized_copy@PEAV?$basic_string@DU?$char_traits@D@std@@V?$allocator@D@2@@std@@PEAV12@V?$allocator@V?$basic_string@DU?$char_traits@D@std@@V?$allocator@D@2@@std@@@2@@std@@YAPEAV?$basic_string@DU?$char_traits@D@std@@V?$allocator@D@2@@0@PEAV10@00AEAV?$allocator@V?$basic_string@DU?$char_traits@D@std@@V?$allocator@D@2@@std@@@0@@Z
	??$_Uninitialized_copy@PEBV?$basic_string@DU?$char_traits@D@std@@V?$allocator@D@2@@std@@PEBV12@V?$allocator@V?$basic_string@DU?$char_traits@D@std@@V?$allocator@D@2@@std@@@2@@std@@YAPEAV?$basic_string@DU?$char_traits@D@std@@V?$allocator@D@2@@0@PEBV10@0PEAV10@AEAV?$allocator@V?$basic_string@DU?$char_traits@D@std@@V?$allocator@D@2@@std@@@0@@Z
	??$_Uninitialized_move@PEAU?$pair@V?$basic_string@DU?$char_traits@D@std@@V?$allocator@D@2@@std@@N@std@@V?$allocator@U?$pair@V?$basic_string@DU?$char_traits@D@std@@V?$allocator@D@2@@std@@N@std@@@2@@std@@YAPEAU?$pair@V?$basic_string@DU?$char_traits@D@std@@V?$allocator@D@2@@std@@N@0@QEAU10@0PEAU10@AEAV?$allocator@U?$pair@V?$basic_string@DU?$char_traits@D@std@@V?$allocator@D@2@@std@@N@std@@@0@@Z
	??$_Uninitialized_move@PEAV?$shared_ptr@VTransport@@@std@@V?$allocator@V?$shared_ptr@VTransport@@@std@@@2@@std@@YAPEAV?$shared_ptr@VTransport@@@0@QEAV10@0PEAV10@AEAV?$allocator@V?$shared_ptr@VTransport@@@std@@@0@@Z
	??$addressof@$$CBV?$_String_val@U?$_Simple_types@D@std@@@std@@@std@@YAPEBV?$_String_val@U?$_Simple_types@D@std@@@0@AEBV10@@Z
	??$addressof@PEAD@std@@YAPEAPEADAEAPEAD@Z
	??$addressof@U?$pair@V?$basic_string@DU?$char_traits@D@std@@V?$allocator@D@2@@std@@N@std@@@std@@YAPEAU?$pair@V?$basic_string@DU?$char_traits@D@std@@V?$allocator@D@2@@std@@N@0@AEAU10@@Z
	??$addressof@U_Container_base12@std@@@std@@YAPEAU_Container_base12@0@AEAU10@@Z
	??$addressof@U_Container_proxy@std@@@std@@YAPEAU_Container_proxy@0@AEAU10@@Z
	??$addressof@V?$_String_val@U?$_Simple_types@D@std@@@std@@@std@@YAPEAV?$_String_val@U?$_Simple_types@D@std@@@0@AEAV10@@Z
	??$addressof@V?$_Vector_val@U?$_Simple_types@U?$pair@V?$basic_string@DU?$char_traits@D@std@@V?$allocator@D@2@@std@@N@std@@@std@@@std@@@std@@YAPEAV?$_Vector_val@U?$_Simple_types@U?$pair@V?$basic_string@DU?$char_traits@D@std@@V?$allocator@D@2@@std@@N@std@@@std@@@0@AEAV10@@Z
	??$addressof@V?$basic_string@DU?$char_traits@D@std@@V?$allocator@D@2@@std@@@std@@YAPEAV?$basic_string@DU?$char_traits@D@std@@V?$allocator@D@2@@0@AEAV10@@Z
	??$addressof@V?$shared_ptr@VTransport@@@std@@@std@@YAPEAV?$shared_ptr@VTransport@@@0@AEAV10@@Z
	??$addressof@VBoots@@@std@@YAPEAVBoots@@AEAV1@@Z
	??$addressof@VBroom@@@std@@YAPEAVBroom@@AEAV1@@Z
	??$addressof@VCamel@@@std@@YAPEAVCamel@@AEAV1@@Z
	??$addressof@VCarpet@@@std@@YAPEAVCarpet@@AEAV1@@Z
	??$addressof@VCentaur@@@std@@YAPEAVCentaur@@AEAV1@@Z
	??$addressof@VEagle@@@std@@YAPEAVEagle@@AEAV1@@Z
	??$addressof@VFastCamel@@@std@@YAPEAVFastCamel@@AEAV1@@Z
	??$construct@U?$pair@V?$basic_string@DU?$char_traits@D@std@@V?$allocator@D@2@@std@@N@std@@U12@@?$_Default_allocator_traits@V?$allocator@U?$pair@V?$basic_string@DU?$char_traits@D@std@@V?$allocator@D@2@@std@@N@std@@@std@@@std@@SAXAEAV?$allocator@U?$pair@V?$basic_string@DU?$char_traits@D@std@@V?$allocator@D@2@@std@@N@std@@@1@QEAU?$pair@V?$basic_string@DU?$char_traits@D@std@@V?$allocator@D@2@@std@@N@1@$$QEAU31@@Z
	??$construct@U?$pair@V?$basic_string@DU?$char_traits@D@std@@V?$allocator@D@2@@std@@N@std@@V?$basic_string@DU?$char_traits@D@std@@V?$allocator@D@2@@2@N@?$_Default_allocator_traits@V?$allocator@U?$pair@V?$basic_string@DU?$char_traits@D@std@@V?$allocator@D@2@@std@@N@std@@@std@@@std@@SAXAEAV?$allocator@U?$pair@V?$basic_string@DU?$char_traits@D@std@@V?$allocator@D@2@@std@@N@std@@@1@QEAU?$pair@V?$basic_string@DU?$char_traits@D@std@@V?$allocator@D@2@@std@@N@1@$$QEAV?$basic_string@DU?$char_traits@D@std@@V?$allocator@D@2@@1@$$QEAN@Z
	??$construct@V?$basic_string@DU?$char_traits@D@std@@V?$allocator@D@2@@std@@AEAV12@@?$_Default_allocator_traits@V?$allocator@V?$basic_string@DU?$char_traits@D@std@@V?$allocator@D@2@@std@@@std@@@std@@SAXAEAV?$allocator@V?$basic_string@DU?$char_traits@D@std@@V?$allocator@D@2@@std@@@1@QEAV?$basic_string@DU?$char_traits@D@std@@V?$allocator@D@2@@1@AEAV31@@Z
	??$construct@V?$basic_string@DU?$char_traits@D@std@@V?$allocator@D@2@@std@@AEBV12@@?$_Default_allocator_traits@V?$allocator@V?$basic_string@DU?$char_traits@D@std@@V?$allocator@D@2@@std@@@std@@@std@@SAXAEAV?$allocator@V?$basic_string@DU?$char_traits@D@std@@V?$allocator@D@2@@std@@@1@QEAV?$basic_string@DU?$char_traits@D@std@@V?$allocator@D@2@@1@AEBV31@@Z
	??$construct@V?$shared_ptr@VTransport@@@std@@AEBV12@@?$_Default_allocator_traits@V?$allocator@V?$shared_ptr@VTransport@@@std@@@std@@@std@@SAXAEAV?$allocator@V?$shared_ptr@VTransport@@@std@@@1@QEAV?$shared_ptr@VTransport@@@1@AEBV31@@Z
	??$construct@V?$shared_ptr@VTransport@@@std@@V12@@?$_Default_allocator_traits@V?$allocator@V?$shared_ptr@VTransport@@@std@@@std@@@std@@SAXAEAV?$allocator@V?$shared_ptr@VTransport@@@std@@@1@QEAV?$shared_ptr@VTransport@@@1@$$QEAV31@@Z
	??$destroy@U?$pair@V?$basic_string@DU?$char_traits@D@std@@V?$allocator@D@2@@std@@N@std@@@?$_Default_allocator_traits@V?$allocator@U?$pair@V?$basic_string@DU?$char_traits@D@std@@V?$allocator@D@2@@std@@N@std@@@std@@@std@@SAXAEAV?$allocator@U?$pair@V?$basic_string@DU?$char_traits@D@std@@V?$allocator@D@2@@std@@N@std@@@1@QEAU?$pair@V?$basic_string@DU?$char_traits@D@std@@V?$allocator@D@2@@std@@N@1@@Z
	??$destroy@V?$basic_string@DU?$char_traits@D@std@@V?$allocator@D@2@@std@@@?$_Default_allocator_traits@V?$allocator@V?$basic_string@DU?$char_traits@D@std@@V?$allocator@D@2@@std@@@std@@@std@@SAXAEAV?$allocator@V?$basic_string@DU?$char_traits@D@std@@V?$allocator@D@2@@std@@@1@QEAV?$basic_string@DU?$char_traits@D@std@@V?$allocator@D@2@@1@@Z
	??$destroy@V?$shared_ptr@VTransport@@@std@@@?$_Default_allocator_traits@V?$allocator@V?$shared_ptr@VTransport@@@std@@@std@@@std@@SAXAEAV?$allocator@V?$shared_ptr@VTransport@@@std@@@1@QEAV?$shared_ptr@VTransport@@@1@@Z
	??$emplace_back@V?$basic_string@DU?$char_traits@D@std@@V?$allocator@D@2@@std@@N@?$vector@U?$pair@V?$basic_string@DU?$char_traits@D@std@@V?$allocator@D@2@@std@@N@std@@V?$allocator@U?$pair@V?$basic_string@DU?$char_traits@D@std@@V?$allocator@D@2@@std@@N@std@@@2@@std@@QEAA?A_T$$QEAV?$basic_string@DU?$char_traits@D@std@@V?$allocator@D@2@@1@$$QEAN@Z
	??$exchange@PEAU?$pair@V?$basic_string@DU?$char_traits@D@std@@V?$allocator@D@2@@std@@N@std@@$$T@std@@YAPEAU?$pair@V?$basic_string@DU?$char_traits@D@std@@V?$allocator@D@2@@std@@N@0@AEAPEAU10@$$QEA$$T@Z
	??$exchange@PEAU_Container_proxy@std@@$$T@std@@YAPEAU_Container_proxy@0@AEAPEAU10@$$QEA$$T@Z
	??$exchange@PEAU_Iterator_base12@std@@$$T@std@@YAPEAU_Iterator_base12@0@AEAPEAU10@$$QEA$$T@Z
	??$forward@AEAPEAD@std@@YAAEAPEADAEAPEAD@Z
	??$forward@AEAPEAU?$pair@V?$basic_string@DU?$char_traits@D@std@@V?$allocator@D@2@@std@@N@std@@@std@@YAAEAPEAU?$pair@V?$basic_string@DU?$char_traits@D@std@@V?$allocator@D@2@@std@@N@0@AEAPEAU10@@Z
	??$forward@AEAV?$basic_string@DU?$char_traits@D@std@@V?$allocator@D@2@@std@@@std@@YAAEAV?$basic_string@DU?$char_traits@D@std@@V?$allocator@D@2@@0@AEAV10@@Z
	??$forward@AEBQEAD@std@@YAAEBQEADAEBQEAD@Z
	??$forward@AEBQEAV?$basic_string@DU?$char_traits@D@std@@V?$allocator@D@2@@std@@@std@@YAAEBQEAV?$basic_string@DU?$char_traits@D@std@@V?$allocator@D@2@@0@AEBQEAV10@@Z
	??$forward@AEBV?$allocator@V?$basic_string@DU?$char_traits@D@std@@V?$allocator@D@2@@std@@@std@@@std@@YAAEBV?$allocator@V?$basic_string@DU?$char_traits@D@std@@V?$allocator@D@2@@std@@@0@AEBV10@@Z
	??$forward@AEBV?$basic_string@DU?$char_traits@D@std@@V?$allocator@D@2@@std@@@std@@YAAEBV?$basic_string@DU?$char_traits@D@std@@V?$allocator@D@2@@0@AEBV10@@Z
	??$forward@AEBV?$shared_ptr@VTransport@@@std@@@std@@YAAEBV?$shared_ptr@VTransport@@@0@AEBV10@@Z
	??$forward@N@std@@YA$$QEANAEAN@Z
	??$forward@PEAU?$pair@V?$basic_string@DU?$char_traits@D@std@@V?$allocator@D@2@@std@@N@std@@@std@@YA$$QEAPEAU?$pair@V?$basic_string@DU?$char_traits@D@std@@V?$allocator@D@2@@std@@N@0@AEAPEAU10@@Z
	??$forward@PEAU_Container_base12@std@@@std@@YA$$QEAPEAU_Container_base12@0@AEAPEAU10@@Z
	??$forward@PEBV?$basic_string@DU?$char_traits@D@std@@V?$allocator@D@2@@std@@@std@@YA$$QEAPEBV?$basic_string@DU?$char_traits@D@std@@V?$allocator@D@2@@0@AEAPEBV10@@Z
	??$forward@U?$pair@V?$basic_string@DU?$char_traits@D@std@@V?$allocator@D@2@@std@@N@std@@@std@@YA$$QEAU?$pair@V?$basic_string@DU?$char_traits@D@std@@V?$allocator@D@2@@std@@N@0@AEAU10@@Z
	??$forward@V?$allocator@D@std@@@std@@YA$$QEAV?$allocator@D@0@AEAV10@@Z
	??$forward@V?$allocator@U?$pair@V?$basic_string@DU?$char_traits@D@std@@V?$allocator@D@2@@std@@N@std@@@std@@@std@@YA$$QEAV?$allocator@U?$pair@V?$basic_string@DU?$char_traits@D@std@@V?$allocator@D@2@@std@@N@std@@@0@AEAV10@@Z
	??$forward@V?$allocator@V?$basic_string@DU?$char_traits@D@std@@V?$allocator@D@2@@std@@@std@@@std@@YA$$QEAV?$allocator@V?$basic_string@DU?$char_traits@D@std@@V?$allocator@D@2@@std@@@0@AEAV10@@Z
	??$forward@V?$basic_string@DU?$char_traits@D@std@@V?$allocator@D@2@@std@@@std@@YA$$QEAV?$basic_string@DU?$char_traits@D@std@@V?$allocator@D@2@@0@AEAV10@@Z
	??$forward@V?$shared_ptr@VTransport@@@std@@@std@@YA$$QEAV?$shared_ptr@VTransport@@@0@AEAV10@@Z
	??$make_shared@VBoots@@$$V@std@@YA?AV?$shared_ptr@VBoots@@@0@XZ
	??$make_shared@VBroom@@$$V@std@@YA?AV?$shared_ptr@VBroom@@@0@XZ
	??$make_shared@VCamel@@$$V@std@@YA?AV?$shared_ptr@VCamel@@@0@XZ
	??$make_shared@VCarpet@@$$V@std@@YA?AV?$shared_ptr@VCarpet@@@0@XZ
	??$make_shared@VCentaur@@$$V@std@@YA?AV?$shared_ptr@VCentaur@@@0@XZ
	??$make_shared@VEagle@@$$V@std@@YA?AV?$shared_ptr@VEagle@@@0@XZ
	??$make_shared@VFastCamel@@$$V@std@@YA?AV?$shared_ptr@VFastCamel@@@0@XZ
	??$max@_K@std@@YAAEB_KAEB_K0@Z
	??$min@_K@std@@YAAEB_KAEB_K0@Z
	??$move@AEAN@std@@YA$$QEANAEAN@Z
	??$move@AEAPEAD@std@@YA$$QEAPEADAEAPEAD@Z
	??$move@AEAPEAV?$basic_string@DU?$char_traits@D@std@@V?$allocator@D@2@@std@@@std@@YA$$QEAPEAV?$basic_string@DU?$char_traits@D@std@@V?$allocator@D@2@@0@AEAPEAV10@@Z
	??$move@AEAPEBV?$basic_string@DU?$char_traits@D@std@@V?$allocator@D@2@@std@@@std@@YA$$QEAPEBV?$basic_string@DU?$char_traits@D@std@@V?$allocator@D@2@@0@AEAPEBV10@@Z
	??$move@AEAU?$pair@V?$basic_string@DU?$char_traits@D@std@@V?$allocator@D@2@@std@@N@std@@@std@@YA$$QEAU?$pair@V?$basic_string@DU?$char_traits@D@std@@V?$allocator@D@2@@std@@N@0@AEAU10@@Z
	??$move@AEAV?$allocator@D@std@@@std@@YA$$QEAV?$allocator@D@0@AEAV10@@Z
	??$move@AEAV?$allocator@U?$pair@V?$basic_string@DU?$char_traits@D@std@@V?$allocator@D@2@@std@@N@std@@@std@@@std@@YA$$QEAV?$allocator@U?$pair@V?$basic_string@DU?$char_traits@D@std@@V?$allocator@D@2@@std@@N@std@@@0@AEAV10@@Z
	??$move@AEAV?$shared_ptr@VBoots@@@std@@@std@@YA$$QEAV?$shared_ptr@VBoots@@@0@AEAV10@@Z
	??$move@AEAV?$shared_ptr@VBroom@@@std@@@std@@YA$$QEAV?$shared_ptr@VBroom@@@0@AEAV10@@Z
	??$move@AEAV?$shared_ptr@VCamel@@@std@@@std@@YA$$QEAV?$shared_ptr@VCamel@@@0@AEAV10@@Z
	??$move@AEAV?$shared_ptr@VCarpet@@@std@@@std@@YA$$QEAV?$shared_ptr@VCarpet@@@0@AEAV10@@Z
	??$move@AEAV?$shared_ptr@VCentaur@@@std@@@std@@YA$$QEAV?$shared_ptr@VCentaur@@@0@AEAV10@@Z
	??$move@AEAV?$shared_ptr@VEagle@@@std@@@std@@YA$$QEAV?$shared_ptr@VEagle@@@0@AEAV10@@Z
	??$move@AEAV?$shared_ptr@VFastCamel@@@std@@@std@@YA$$QEAV?$shared_ptr@VFastCamel@@@0@AEAV10@@Z
	??$move@AEAV?$shared_ptr@VTransport@@@std@@@std@@YA$$QEAV?$shared_ptr@VTransport@@@0@AEAV10@@Z
	??$move@AEA_K@std@@YA$$QEA_KAEA_K@Z
	??$swap@DU?$char_traits@D@std@@V?$allocator@D@2@@std@@YAXAEAV?$basic_string@DU?$char_traits@D@std@@V?$allocator@D@2@@0@0@Z
	??$swap@N$0A@@std@@YAXAEAN0@Z
	??$swap@PEAD$0A@@std@@YAXAEAPEAD0@Z
	??$swap@V?$basic_string@DU?$char_traits@D@std@@V?$allocator@D@2@@std@@N$0A@@std@@YAXAEAU?$pair@V?$basic_string@DU?$char_traits@D@std@@V?$allocator@D@2@@std@@N@0@0@Z
	??$swap@_K$0A@@std@@YAXAEA_K0@Z
	??0?$_Container_proxy_ptr12@V?$allocator@U_Container_proxy@std@@@std@@@std@@QEAA@AEAV?$allocator@U_Container_proxy@std@@@1@AEAU_Container_base12@1@@Z
	??0?$_Ptr_base@VBoots@@@std@@IEAA@XZ
	??0?$_Ptr_base@VBroom@@@std@@IEAA@XZ
	??0?$_Ptr_base@VCamel@@@std@@IEAA@XZ
	??0?$_Ptr_base@VCarpet@@@std@@IEAA@XZ
	??0?$_Ptr_base@VCentaur@@@std@@IEAA@XZ
	??0?$_Ptr_base@VEagle@@@std@@IEAA@XZ
	??0?$_Ptr_base@VFastCamel@@@std@@IEAA@XZ
	??0?$_Ptr_base@VTransport@@@std@@IEAA@XZ
	??0?$_String_val@U?$_Simple_types@D@std@@@std@@QEAA@XZ
	??0?$_Uninitialized_backout_al@V?$allocator@U?$pair@V?$basic_string@DU?$char_traits@D@std@@V?$allocator@D@2@@std@@N@std@@@std@@@std@@QEAA@PEAU?$pair@V?$basic_string@DU?$char_traits@D@std@@V?$allocator@D@2@@std@@N@1@AEAV?$allocator@U?$pair@V?$basic_string@DU?$char_traits@D@std@@V?$allocator@D@2@@std@@N@std@@@1@@Z
	??0?$_Uninitialized_backout_al@V?$allocator@V?$basic_string@DU?$char_traits@D@std@@V?$allocator@D@2@@std@@@std@@@std@@QEAA@PEAV?$basic_string@DU?$char_traits@D@std@@V?$allocator@D@2@@1@AEAV?$allocator@V?$basic_string@DU?$char_traits@D@std@@V?$allocator@D@2@@std@@@1@@Z
	??0?$_Uninitialized_backout_al@V?$allocator@V?$shared_ptr@VTransport@@@std@@@std@@@std@@QEAA@PEAV?$shared_ptr@VTransport@@@1@AEAV?$allocator@V?$shared_ptr@VTransport@@@std@@@1@@Z
	??0?$_Vector_const_iterator@V?$_Vector_val@U?$_Simple_types@U?$pair@V?$basic_string@DU?$char_traits@D@std@@V?$allocator@D@2@@std@@N@std@@@std@@@std@@@std@@QEAA@PEAU?$pair@V?$basic_string@DU?$char_traits@D@std@@V?$allocator@D@2@@std@@N@1@PEBU_Container_base12@1@@Z
	??0?$_Vector_iterator@V?$_Vector_val@U?$_Simple_types@U?$pair@V?$basic_string@DU?$char_traits@D@std@@V?$allocator@D@2@@std@@N@std@@@std@@@std@@@std@@QEAA@PEAU?$pair@V?$basic_string@DU?$char_traits@D@std@@V?$allocator@D@2@@std@@N@1@PEBU_Container_base12@1@@Z
	??0?$_Vector_val@U?$_Simple_types@U?$pair@V?$basic_string@DU?$char_traits@D@std@@V?$allocator@D@2@@std@@N@std@@@std@@@std@@QEAA@PEAU?$pair@V?$basic_string@DU?$char_traits@D@std@@V?$allocator@D@2@@std@@N@1@00@Z
	??0?$_Vector_val@U?$_Simple_types@U?$pair@V?$basic_string@DU?$char_traits@D@std@@V?$allocator@D@2@@std@@N@std@@@std@@@std@@QEAA@XZ
	??0?$_Vector_val@U?$_Simple_types@V?$basic_string@DU?$char_traits@D@std@@V?$allocator@D@2@@std@@@std@@@std@@QEAA@XZ
	??0?$_Vector_val@U?$_Simple_types@V?$shared_ptr@VTransport@@@std@@@std@@@std@@QEAA@XZ
	??0?$allocator@D@std@@QEAA@XZ
	??0?$allocator@U?$pair@V?$basic_string@DU?$char_traits@D@std@@V?$allocator@D@2@@std@@N@std@@@std@@QEAA@XZ
	??0?$allocator@V?$basic_string@DU?$char_traits@D@std@@V?$allocator@D@2@@std@@@std@@QEAA@XZ
	??0?$allocator@V?$shared_ptr@VTransport@@@std@@@std@@QEAA@XZ
	??0?$basic_string@DU?$char_traits@D@std@@V?$allocator@D@2@@std@@QEAA@$$QEAV01@@Z
	??0?$basic_string@DU?$char_traits@D@std@@V?$allocator@D@2@@std@@QEAA@AEBV01@@Z
	??0?$basic_string@DU?$char_traits@D@std@@V?$allocator@D@2@@std@@QEAA@QEBD@Z
	??0?$initializer_list@V?$basic_string@DU?$char_traits@D@std@@V?$allocator@D@2@@std@@@std@@QEAA@PEBV?$basic_string@DU?$char_traits@D@std@@V?$allocator@D@2@@1@0@Z
	??0?$pair@V?$basic_string@DU?$char_traits@D@std@@V?$allocator@D@2@@std@@N@std@@QEAA@$$QEAU01@@Z
	??0?$shared_ptr@VBoots@@@std@@QEAA@$$QEAV01@@Z
	??0?$shared_ptr@VBoots@@@std@@QEAA@XZ
	??0?$shared_ptr@VBroom@@@std@@QEAA@$$QEAV01@@Z
	??0?$shared_ptr@VBroom@@@std@@QEAA@XZ
	??0?$shared_ptr@VCamel@@@std@@QEAA@$$QEAV01@@Z
	??0?$shared_ptr@VCamel@@@std@@QEAA@XZ
	??0?$shared_ptr@VCarpet@@@std@@QEAA@$$QEAV01@@Z
	??0?$shared_ptr@VCarpet@@@std@@QEAA@XZ
	??0?$shared_ptr@VCentaur@@@std@@QEAA@$$QEAV01@@Z
	??0?$shared_ptr@VCentaur@@@std@@QEAA@XZ
	??0?$shared_ptr@VEagle@@@std@@QEAA@$$QEAV01@@Z
	??0?$shared_ptr@VEagle@@@std@@QEAA@XZ
	??0?$shared_ptr@VFastCamel@@@std@@QEAA@$$QEAV01@@Z
	??0?$shared_ptr@VFastCamel@@@std@@QEAA@XZ
	??0?$shared_ptr@VTransport@@@std@@QEAA@$$QEAV01@@Z
	??0?$shared_ptr@VTransport@@@std@@QEAA@$$T@Z
	??0?$shared_ptr@VTransport@@@std@@QEAA@AEBV01@@Z
	??0?$vector@U?$pair@V?$basic_string@DU?$char_traits@D@std@@V?$allocator@D@2@@std@@N@std@@V?$allocator@U?$pair@V?$basic_string@DU?$char_traits@D@std@@V?$allocator@D@2@@std@@N@std@@@2@@std@@QEAA@$$QEAV01@@Z
	??0?$vector@U?$pair@V?$basic_string@DU?$char_traits@D@std@@V?$allocator@D@2@@std@@N@std@@V?$allocator@U?$pair@V?$basic_string@DU?$char_traits@D@std@@V?$allocator@D@2@@std@@N@std@@@2@@std@@QEAA@XZ
	??0?$vector@V?$basic_string@DU?$char_traits@D@std@@V?$allocator@D@2@@std@@V?$allocator@V?$basic_string@DU?$char_traits@D@std@@V?$allocator@D@2@@std@@@2@@std@@QEAA@AEBV01@@Z
	??0?$vector@V?$basic_string@DU?$char_traits@D@std@@V?$allocator@D@2@@std@@V?$allocator@V?$basic_string@DU?$char_traits@D@std@@V?$allocator@D@2@@std@@@2@@std@@QEAA@V?$initializer_list@V?$basic_string@DU?$char_traits@D@std@@V?$allocator@D@2@@std@@@1@AEBV?$allocator@V?$basic_string@DU?$char_traits@D@std@@V?$allocator@D@2@@std@@@1@@Z
	??0?$vector@V?$shared_ptr@VTransport@@@std@@V?$allocator@V?$shared_ptr@VTransport@@@std@@@2@@std@@QEAA@XZ
	??0AirTransport@@QEAA@N@Z
	??0Boots@@QEAA@XZ
	??0Broom@@QEAA@XZ
	??0Camel@@QEAA@XZ
	??0Carpet@@QEAA@XZ
	??0Centaur@@QEAA@XZ
	??0Eagle@@QEAA@XZ
	??0FastCamel@@QEAA@XZ
	??0LandTransport@@QEAA@N@Z
	??0Race@@QEAA@W4RaceType@@N@Z
	??0RaceError@@QEAA@AEBU0@@Z
	??0RaceError@@QEAA@PEBD@Z
	??0RegistrationError@@QEAA@AEBU0@@Z
	??0RegistrationError@@QEAA@PEBD@Z
	??0Transport@@QEAA@XZ
	??0_Basic_container_proxy_ptr12@std@@IEAA@XZ
	??0_Bxty@?$_String_val@U?$_Simple_types@D@std@@@std@@QEAA@XZ
	??0_Container_base12@std@@QEAA@XZ
	??0_Container_proxy@std@@QEAA@PEAU_Container_base12@1@@Z
	??0_Iterator_base12@std@@QEAA@XZ
	??0_Ref_count_base@std@@IEAA@XZ
	??0bad_alloc@std@@AEAA@QEBD@Z
	??0bad_alloc@std@@QEAA@AEBV01@@Z
	??0bad_array_new_length@std@@QEAA@AEBV01@@Z
	??0bad_array_new_length@std@@QEAA@XZ
	??0exception@std@@QEAA@AEBV01@@Z
	??0exception@std@@QEAA@QEBD@Z
	??0exception@std@@QEAA@QEBDH@Z
	??0logic_error@std@@QEAA@AEBV01@@Z
	??0logic_error@std@@QEAA@PEBD@Z
	??1?$_Compressed_pair@V?$allocator@D@std@@V?$_String_val@U?$_Simple_types@D@std@@@2@$00@std@@QEAA@XZ
	??1?$_Container_proxy_ptr12@V?$allocator@U_Container_proxy@std@@@std@@@std@@QEAA@XZ
	??1?$_Ref_count_obj2@VBoots@@@std@@UEAA@XZ
	??1?$_Ref_count_obj2@VBroom@@@std@@UEAA@XZ
	??1?$_Ref_count_obj2@VCamel@@@std@@UEAA@XZ
	??1?$_Ref_count_obj2@VCarpet@@@std@@UEAA@XZ
	??1?$_Ref_count_obj2@VCentaur@@@std@@UEAA@XZ
	??1?$_Ref_count_obj2@VEagle@@@std@@UEAA@XZ
	??1?$_Ref_count_obj2@VFastCamel@@@std@@UEAA@XZ
	??1?$_String_val@U?$_Simple_types@D@std@@@std@@QEAA@XZ
	??1?$_Tidy_guard@V?$vector@V?$basic_string@DU?$char_traits@D@std@@V?$allocator@D@2@@std@@V?$allocator@V?$basic_string@DU?$char_traits@D@std@@V?$allocator@D@2@@std@@@2@@std@@@std@@QEAA@XZ
	??1?$_Uninitialized_backout_al@V?$allocator@U?$pair@V?$basic_string@DU?$char_traits@D@std@@V?$allocator@D@2@@std@@N@std@@@std@@@std@@QEAA@XZ
	??1?$_Uninitialized_backout_al@V?$allocator@V?$basic_string@DU?$char_traits@D@std@@V?$allocator@D@2@@std@@@std@@@std@@QEAA@XZ
	??1?$_Uninitialized_backout_al@V?$allocator@V?$shared_ptr@VTransport@@@std@@@std@@@std@@QEAA@XZ
	??1?$_Vector_const_iterator@V?$_Vector_val@U?$_Simple_types@U?$pair@V?$basic_string@DU?$char_traits@D@std@@V?$allocator@D@2@@std@@N@std@@@std@@@std@@@std@@QEAA@XZ
	??1?$_Vector_iterator@V?$_Vector_val@U?$_Simple_types@U?$pair@V?$basic_string@DU?$char_traits@D@std@@V?$allocator@D@2@@std@@N@std@@@std@@@std@@@std@@QEAA@XZ
	??1?$basic_string@DU?$char_traits@D@std@@V?$allocator@D@2@@std@@QEAA@XZ
	??1?$pair@V?$basic_string@DU?$char_traits@D@std@@V?$allocator@D@2@@std@@N@std@@QEAA@XZ
	??1?$shared_ptr@VBoots@@@std@@QEAA@XZ
	??1?$shared_ptr@VBroom@@@std@@QEAA@XZ
	??1?$shared_ptr@VCamel@@@std@@QEAA@XZ
	??1?$shared_ptr@VCarpet@@@std@@QEAA@XZ
	??1?$shared_ptr@VCentaur@@@std@@QEAA@XZ
	??1?$shared_ptr@VEagle@@@std@@QEAA@XZ
	??1?$shared_ptr@VFastCamel@@@std@@QEAA@XZ
	??1?$shared_ptr@VTransport@@@std@@QEAA@XZ
	??1?$vector@U?$pair@V?$basic_string@DU?$char_traits@D@std@@V?$allocator@D@2@@std@@N@std@@V?$allocator@U?$pair@V?$basic_string@DU?$char_traits@D@std@@V?$allocator@D@2@@std@@N@std@@@2@@std@@QEAA@XZ
	??1?$vector@V?$basic_string@DU?$char_traits@D@std@@V?$allocator@D@2@@std@@V?$allocator@V?$basic_string@DU?$char_traits@D@std@@V?$allocator@D@2@@std@@@2@@std@@QEAA@XZ
	??1AirTransport@@UEAA@XZ
	??1Boots@@UEAA@XZ
	??1Broom@@UEAA@XZ
	??1Camel@@UEAA@XZ
	??1Carpet@@UEAA@XZ
	??1Centaur@@UEAA@XZ
	??1Eagle@@UEAA@XZ
	??1FastCamel@@UEAA@XZ
	??1LandTransport@@UEAA@XZ
	??1RaceError@@UEAA@XZ
	??1RegistrationError@@UEAA@XZ
	??1Transport@@UEAA@XZ
	??1_Bxty@?$_String_val@U?$_Simple_types@D@std@@@std@@QEAA@XZ
	??1_Iterator_base12@std@@QEAA@XZ
	??1_Ref_count_base@std@@UEAA@XZ
	??1bad_alloc@std@@UEAA@XZ
	??1bad_array_new_length@std@@UEAA@XZ
	??1exception@std@@UEAA@XZ
	??1logic_error@std@@UEAA@XZ
	??2@YAPEAX_KPEAX@Z
	??4?$basic_string@DU?$char_traits@D@std@@V?$allocator@D@2@@std@@QEAAAEAV01@$$QEAV01@@Z
	??_7?$_Ref_count_obj2@VBoots@@@std@@6B@
	??_7?$_Ref_count_obj2@VBroom@@@std@@6B@
	??_7?$_Ref_count_obj2@VCamel@@@std@@6B@
	??_7?$_Ref_count_obj2@VCarpet@@@std@@6B@
	??_7?$_Ref_count_obj2@VCentaur@@@std@@6B@
	??_7?$_Ref_count_obj2@VEagle@@@std@@6B@
	??_7?$_Ref_count_obj2@VFastCamel@@@std@@6B@
	??_7AirTransport@@6B@
	??_7Boots@@6B@
	??_7Broom@@6B@
	??_7Camel@@6B@
	??_7Carpet@@6B@
	??_7Centaur@@6B@
	??_7Eagle@@6B@
	??_7FastCamel@@6B@
	??_7LandTransport@@6B@
	??_7RaceError@@6B@
	??_7RegistrationError@@6B@
	??_7Transport@@6B@
	??_7bad_alloc@std@@6B@
	??_7bad_array_new_length@std@@6B@
	??_7exception@std@@6B@
	??_7logic_error@std@@6B@
	?_Activate_SSO_buffer@?$_String_val@U?$_Simple_types@D@std@@@std@@QEAAXXZ
	?_Adjust_manually_vector_aligned@std@@YAXAEAPEAXAEA_K@Z
	?_Adopt@_Iterator_base12@std@@QEAAXPEBU_Container_base12@2@@Z
	?_Adopt_locked@_Iterator_base12@std@@AEAAXPEBU_Container_base12@2@@Z
	?_Adopt_unlocked@_Iterator_base12@std@@AEAAXPEBU_Container_base12@2@@Z
	?_Allocate@_Default_allocate_traits@std@@SAPEAX_K@Z
	?_Buy_nonzero@?$vector@V?$basic_string@DU?$char_traits@D@std@@V?$allocator@D@2@@std@@V?$allocator@V?$basic_string@DU?$char_traits@D@std@@V?$allocator@D@2@@std@@@2@@std@@AEAAX_K@Z
	?_Buy_raw@?$vector@V?$basic_string@DU?$char_traits@D@std@@V?$allocator@D@2@@std@@V?$allocator@V?$basic_string@DU?$char_traits@D@std@@V?$allocator@D@2@@std@@@2@@std@@AEAAX_K@Z
	?_Calculate_growth@?$basic_string@DU?$char_traits@D@std@@V?$allocator@D@2@@std@@AEBA_K_K@Z
	?_Calculate_growth@?$basic_string@DU?$char_traits@D@std@@V?$allocator@D@2@@std@@CA_K_K00@Z
	?_Calculate_growth@?$vector@U?$pair@V?$basic_string@DU?$char_traits@D@std@@V?$allocator@D@2@@std@@N@std@@V?$allocator@U?$pair@V?$basic_string@DU?$char_traits@D@std@@V?$allocator@D@2@@std@@N@std@@@2@@std@@AEBA_K_K@Z
	?_Calculate_growth@?$vector@V?$shared_ptr@VTransport@@@std@@V?$allocator@V?$shared_ptr@VTransport@@@std@@@2@@std@@AEBA_K_K@Z
	?_Change_array@?$vector@U?$pair@V?$basic_string@DU?$char_traits@D@std@@V?$allocator@D@2@@std@@N@std@@V?$allocator@U?$pair@V?$basic_string@DU?$char_traits@D@std@@V?$allocator@D@2@@std@@N@std@@@2@@std@@AEAAXQEAU?$pair@V?$basic_string@DU?$char_traits@D@std@@V?$allocator@D@2@@std@@N@2@_K1@Z
	?_Change_array@?$vector@V?$shared_ptr@VTransport@@@std@@V?$allocator@V?$shared_ptr@VTransport@@@std@@@2@@std@@AEAAXQEAV?$shared_ptr@VTransport@@@2@_K1@Z
	?_Deallocate_for_capacity@?$basic_string@DU?$char_traits@D@std@@V?$allocator@D@2@@std@@CAXAEAV?$allocator@D@2@QEAD_K@Z
	?_Decref@?$_Ptr_base@VBoots@@@std@@IEAAXXZ
	?_Decref@?$_Ptr_base@VBroom@@@std@@IEAAXXZ
	?_Decref@?$_Ptr_base@VCamel@@@std@@IEAAXXZ
	?_Decref@?$_Ptr_base@VCarpet@@@std@@IEAAXXZ
	?_Decref@?$_Ptr_base@VCentaur@@@std@@IEAAXXZ
	?_Decref@?$_Ptr_base@VEagle@@@std@@IEAAXXZ
	?_Decref@?$_Ptr_base@VFastCamel@@@std@@IEAAXXZ
	?_Decref@?$_Ptr_base@VTransport@@@std@@IEAAXXZ
	?_Decref@_Ref_count_base@std@@QEAAXXZ
	?_Decwref@_Ref_count_base@std@@QEAAXXZ
	?_Delete_this@?$_Ref_count_obj2@VBoots@@@std@@EEAAXXZ
	?_Delete_this@?$_Ref_count_obj2@VBroom@@@std@@EEAAXXZ
	?_Delete_this@?$_Ref_count_obj2@VCamel@@@std@@EEAAXXZ
	?_Delete_this@?$_Ref_count_obj2@VCarpet@@@std@@EEAAXXZ
	?_Delete_this@?$_Ref_count_obj2@VCentaur@@@std@@EEAAXXZ
	?_Delete_this@?$_Ref_count_obj2@VEagle@@@std@@EEAAXXZ
	?_Delete_this@?$_Ref_count_obj2@VFastCamel@@@std@@EEAAXXZ
	?_Destroy@?$_Ref_count_obj2@VBoots@@@std@@EEAAXXZ
	?_Destroy@?$_Ref_count_obj2@VBroom@@@std@@EEAAXXZ
	?_Destroy@?$_Ref_count_obj2@VCamel@@@std@@EEAAXXZ
	?_Destroy@?$_Ref_count_obj2@VCarpet@@@std@@EEAAXXZ
	?_Destroy@?$_Ref_count_obj2@VCentaur@@@std@@EEAAXXZ
	?_Destroy@?$_Ref_count_obj2@VEagle@@@std@@EEAAXXZ
	?_Destroy@?$_Ref_count_obj2@VFastCamel@@@std@@EEAAXXZ
	?_Equal@?$basic_string@DU?$char_traits@D@std@@V?$allocator@D@2@@std@@QEBA_NAEBV12@@Z
	?_Get_deleter@_Ref_count_base@std@@UEBAPEAXAEBVtype_info@@@Z
	?_Get_first@?$_Compressed_pair@V?$allocator@D@std@@V?$_String_val@U?$_Simple_types@D@std@@@2@$00@std@@QEAAAEAV?$allocator@D@2@XZ
	?_Get_first@?$_Compressed_pair@V?$allocator@D@std@@V?$_String_val@U?$_Simple_types@D@std@@@2@$00@std@@QEBAAEBV?$allocator@D@2@XZ
	?_Get_first@?$_Compressed_pair@V?$allocator@U?$pair@V?$basic_string@DU?$char_traits@D@std@@V?$allocator@D@2@@std@@N@std@@@std@@V?$_Vector_val@U?$_Simple_types@U?$pair@V?$basic_string@DU?$char_traits@D@std@@V?$allocator@D@2@@std@@N@std@@@std@@@2@$00@std@@QEAAAEAV?$allocator@U?$pair@V?$basic_string@DU?$char_traits@D@std@@V?$allocator@D@2@@std@@N@std@@@2@XZ
	?_Get_first@?$_Compressed_pair@V?$allocator@U?$pair@V?$basic_string@DU?$char_traits@D@std@@V?$allocator@D@2@@std@@N@std@@@std@@V?$_Vector_val@U?$_Simple_types@U?$pair@V?$basic_string@DU?$char_traits@D@std@@V?$allocator@D@2@@std@@N@std@@@std@@@2@$00@std@@QEBAAEBV?$allocator@U?$pair@V?$basic_string@DU?$char_traits@D@std@@V?$allocator@D@2@@std@@N@std@@@2@XZ
	?_Get_first@?$_Compressed_pair@V?$allocator@V?$basic_string@DU?$char_traits@D@std@@V?$allocator@D@2@@std@@@std@@V?$_Vector_val@U?$_Simple_types@V?$basic_string@DU?$char_traits@D@std@@V?$allocator@D@2@@std@@@std@@@2@$00@std@@QEAAAEAV?$allocator@V?$basic_string@DU?$char_traits@D@std@@V?$allocator@D@2@@std@@@2@XZ
	?_Get_first@?$_Compressed_pair@V?$allocator@V?$basic_string@DU?$char_traits@D@std@@V?$allocator@D@2@@std@@@std@@V?$_Vector_val@U?$_Simple_types@V?$basic_string@DU?$char_traits@D@std@@V?$allocator@D@2@@std@@@std@@@2@$00@std@@QEBAAEBV?$allocator@V?$basic_string@DU?$char_traits@D@std@@V?$allocator@D@2@@std@@@2@XZ
	?_Get_first@?$_Compressed_pair@V?$allocator@V?$shared_ptr@VTransport@@@std@@@std@@V?$_Vector_val@U?$_Simple_types@V?$shared_ptr@VTransport@@@std@@@std@@@2@$00@std@@QEAAAEAV?$allocator@V?$shared_ptr@VTransport@@@std@@@2@XZ
	?_Get_first@?$_Compressed_pair@V?$allocator@V?$shared_ptr@VTransport@@@std@@@std@@V?$_Vector_val@U?$_Simple_types@V?$shared_ptr@VTransport@@@std@@@std@@@2@$00@std@@QEBAAEBV?$allocator@V?$shared_ptr@VTransport@@@std@@@2@XZ
	?_Getal@?$basic_string@DU?$char_traits@D@std@@V?$allocator@D@2@@std@@AEAAAEAV?$allocator@D@2@XZ
	?_Getal@?$basic_string@DU?$char_traits@D@std@@V?$allocator@D@2@@std@@AEBAAEBV?$allocator@D@2@XZ
	?_Getal@?$vector@U?$pair@V?$basic_string@DU?$char_traits@D@std@@V?$allocator@D@2@@std@@N@std@@V?$allocator@U?$pair@V?$basic_string@DU?$char_traits@D@std@@V?$allocator@D@2@@std@@N@std@@@2@@std@@AEAAAEAV?$allocator@U?$pair@V?$basic_string@DU?$char_traits@D@std@@V?$allocator@D@2@@std@@N@std@@@2@XZ
	?_Getal@?$vector@U?$pair@V?$basic_string@DU?$char_traits@D@std@@V?$allocator@D@2@@std@@N@std@@V?$allocator@U?$pair@V?$basic_string@DU?$char_traits@D@std@@V?$allocator@D@2@@std@@N@std@@@2@@std@@AEBAAEBV?$allocator@U?$pair@V?$basic_string@DU?$char_traits@D@std@@V?$allocator@D@2@@std@@N@std@@@2@XZ
	?_Getal@?$vector@V?$basic_string@DU?$char_traits@D@std@@V?$allocator@D@2@@std@@V?$allocator@V?$basic_string@DU?$char_traits@D@std@@V?$allocator@D@2@@std@@@2@@std@@AEAAAEAV?$allocator@V?$basic_string@DU?$char_traits@D@std@@V?$allocator@D@2@@std@@@2@XZ
	?_Getal@?$vector@V?$basic_string@DU?$char_traits@D@std@@V?$allocator@D@2@@std@@V?$allocator@V?$basic_string@DU?$char_traits@D@std@@V?$allocator@D@2@@std@@@2@@std@@AEBAAEBV?$allocator@V?$basic_string@DU?$char_traits@D@std@@V?$allocator@D@2@@std@@@2@XZ
	?_Getal@?$vector@V?$shared_ptr@VTransport@@@std@@V?$allocator@V?$shared_ptr@VTransport@@@std@@@2@@std@@AEAAAEAV?$allocator@V?$shared_ptr@VTransport@@@std@@@2@XZ
	?_Getal@?$vector@V?$shared_ptr@VTransport@@@std@@V?$allocator@V?$shared_ptr@VTransport@@@std@@@2@@std@@AEBAAEBV?$allocator@V?$shared_ptr@VTransport@@@std@@@2@XZ
	?_Getcont@_Iterator_base12@std@@QEBAPEBU_Container_base12@2@XZ
	?_Incref@?$_Ptr_base@VTransport@@@std@@IEBAXXZ
	?_Incref@_Ref_count_base@std@@QEAAXXZ
	?_Large_mode_engaged@?$_String_val@U?$_Simple_types@D@std@@@std@@QEBA_NXZ
	?_Memcpy_val_from@?$basic_string@DU?$char_traits@D@std@@V?$allocator@D@2@@std@@AEAAXAEBV12@@Z
	?_Myptr@?$_String_val@U?$_Simple_types@D@std@@@std@@QEBAPEBDXZ
	?_Orphan_all@_Container_base12@std@@QEAAXXZ
	?_Orphan_all_locked_v3@_Container_base12@std@@AEAAXXZ
	?_Orphan_all_unlocked_v3@_Container_base12@std@@AEAAXXZ
	?_Orphan_me_locked_v3@_Iterator_base12@std@@AEAAXXZ
	?_Orphan_me_unlocked_v3@_Iterator_base12@std@@AEAAXXZ
	?_Orphan_range@?$vector@U?$pair@V?$basic_string@DU?$char_traits@D@std@@V?$allocator@D@2@@std@@N@std@@V?$allocator@U?$pair@V?$basic_string@DU?$char_traits@D@std@@V?$allocator@D@2@@std@@N@std@@@2@@std@@AEBAXPEAU?$pair@V?$basic_string@DU?$char_traits@D@std@@V?$allocator@D@2@@std@@N@2@0@Z
	?_Orphan_range@?$vector@V?$shared_ptr@VTransport@@@std@@V?$allocator@V?$shared_ptr@VTransport@@@std@@@2@@std@@AEBAXPEAV?$shared_ptr@VTransport@@@2@0@Z
	?_Orphan_range_locked@?$vector@U?$pair@V?$basic_string@DU?$char_traits@D@std@@V?$allocator@D@2@@std@@N@std@@V?$allocator@U?$pair@V?$basic_string@DU?$char_traits@D@std@@V?$allocator@D@2@@std@@N@std@@@2@@std@@AEBAXPEAU?$pair@V?$basic_string@DU?$char_traits@D@std@@V?$allocator@D@2@@std@@N@2@0@Z
	?_Orphan_range_locked@?$vector@V?$shared_ptr@VTransport@@@std@@V?$allocator@V?$shared_ptr@VTransport@@@std@@@2@@std@@AEBAXPEAV?$shared_ptr@VTransport@@@2@0@Z
	?_Orphan_range_unlocked@?$vector@U?$pair@V?$basic_string@DU?$char_traits@D@std@@V?$allocator@D@2@@std@@N@std@@V?$allocator@U?$pair@V?$basic_string@DU?$char_traits@D@std@@V?$allocator@D@2@@std@@N@std@@@2@@std@@AEBAXPEAU?$pair@V?$basic_string@DU?$char_traits@D@std@@V?$allocator@D@2@@std@@N@2@0@Z
	?_Orphan_range_unlocked@?$vector@V?$shared_ptr@VTransport@@@std@@V?$allocator@V?$shared_ptr@VTransport@@@std@@@2@@std@@AEBAXPEAV?$shared_ptr@VTransport@@@2@0@Z
	?_Release@?$_Uninitialized_backout_al@V?$allocator@U?$pair@V?$basic_string@DU?$char_traits@D@std@@V?$allocator@D@2@@std@@N@std@@@std@@@std@@QEAAPEAU?$pair@V?$basic_string@DU?$char_traits@D@std@@V?$allocator@D@2@@std@@N@2@XZ
	?_Release@?$_Uninitialized_backout_al@V?$allocator@V?$basic_string@DU?$char_traits@D@std@@V?$allocator@D@2@@std@@@std@@@std@@QEAAPEAV?$basic_string@DU?$char_traits@D@std@@V?$allocator@D@2@@2@XZ
	?_Release@?$_Uninitialized_backout_al@V?$allocator@V?$shared_ptr@VTransport@@@std@@@std@@@std@@QEAAPEAV?$shared_ptr@VTransport@@@2@XZ
	?_Release@_Basic_container_proxy_ptr12@std@@QEAAXXZ
	?_Swap_bx_large_with_small@?$basic_string@DU?$char_traits@D@std@@V?$allocator@D@2@@std@@SAXAEAV?$_String_val@U?$_Simple_types@D@std@@@2@0@Z
	?_Swap_data@?$basic_string@DU?$char_traits@D@std@@V?$allocator@D@2@@std@@QEAAXAEAV12@@Z
	?_Swap_proxy_and_iterators@?$basic_string@DU?$char_traits@D@std@@V?$allocator@D@2@@std@@AEAAXAEAV12@@Z
	?_Swap_proxy_and_iterators@_Container_base12@std@@QEAAXAEAU12@@Z
	?_Swap_proxy_and_iterators_locked@_Container_base12@std@@AEAAXAEAU12@@Z
	?_Swap_proxy_and_iterators_unlocked@_Container_base12@std@@AEAAXAEAU12@@Z
	?_Take_contents@?$basic_string@DU?$char_traits@D@std@@V?$allocator@D@2@@std@@AEAAXAEAV12@@Z
	?_Throw_bad_array_new_length@std@@YAXXZ
	?_Tidy@?$vector@U?$pair@V?$basic_string@DU?$char_traits@D@std@@V?$allocator@D@2@@std@@N@std@@V?$allocator@U?$pair@V?$basic_string@DU?$char_traits@D@std@@V?$allocator@D@2@@std@@N@std@@@2@@std@@AEAAXXZ
	?_Tidy@?$vector@V?$basic_string@DU?$char_traits@D@std@@V?$allocator@D@2@@std@@V?$allocator@V?$basic_string@DU?$char_traits@D@std@@V?$allocator@D@2@@std@@@2@@std@@AEAAXXZ
	?_Tidy_deallocate@?$basic_string@DU?$char_traits@D@std@@V?$allocator@D@2@@std@@AEAAXXZ
	?_Tidy_init@?$basic_string@DU?$char_traits@D@std@@V?$allocator@D@2@@std@@AEAAXXZ
	?_Unchecked_begin@?$vector@V?$shared_ptr@VTransport@@@std@@V?$allocator@V?$shared_ptr@VTransport@@@std@@@2@@std@@QEAAPEAV?$shared_ptr@VTransport@@@2@XZ
	?_Unchecked_begin@?$vector@V?$shared_ptr@VTransport@@@std@@V?$allocator@V?$shared_ptr@VTransport@@@std@@@2@@std@@QEBAPEBV?$shared_ptr@VTransport@@@2@XZ
	?_Unchecked_end@?$vector@V?$shared_ptr@VTransport@@@std@@V?$allocator@V?$shared_ptr@VTransport@@@std@@@2@@std@@QEAAPEAV?$shared_ptr@VTransport@@@2@XZ
	?_Unchecked_end@?$vector@V?$shared_ptr@VTransport@@@std@@V?$allocator@V?$shared_ptr@VTransport@@@std@@@2@@std@@QEBAPEBV?$shared_ptr@VTransport@@@2@XZ
	?_Unwrapped@?$_Vector_iterator@V?$_Vector_val@U?$_Simple_types@U?$pair@V?$basic_string@DU?$char_traits@D@std@@V?$allocator@D@2@@std@@N@std@@@std@@@std@@@std@@QEBAPEAU?$pair@V?$basic_string@DU?$char_traits@D@std@@V?$allocator@D@2@@std@@N@2@XZ
	?_Verify_range@std@@YAXAEBV?$_Vector_const_iterator@V?$_Vector_val@U?$_Simple_types@U?$pair@V?$basic_string@DU?$char_traits@D@std@@V?$allocator@D@2@@std@@N@std@@@std@@@std@@@1@0@Z
	?_Xlen_string@std@@YAXXZ
	?_Xlength@?$vector@U?$pair@V?$basic_string@DU?$char_traits@D@std@@V?$allocator@D@2@@std@@N@std@@V?$allocator@U?$pair@V?$basic_string@DU?$char_traits@D@std@@V?$allocator@D@2@@std@@N@std@@@2@@std@@CAXXZ
	?_Xlength@?$vector@V?$basic_string@DU?$char_traits@D@std@@V?$allocator@D@2@@std@@V?$allocator@V?$basic_string@DU?$char_traits@D@std@@V?$allocator@D@2@@std@@@2@@std@@CAXXZ
	?_Xlength@?$vector@V?$shared_ptr@VTransport@@@std@@V?$allocator@V?$shared_ptr@VTransport@@@std@@@2@@std@@CAXXZ
	?allocate@?$allocator@D@std@@QEAAPEAD_K@Z
	?allocate@?$allocator@U?$pair@V?$basic_string@DU?$char_traits@D@std@@V?$allocator@D@2@@std@@N@std@@@std@@QEAAPEAU?$pair@V?$basic_string@DU?$char_traits@D@std@@V?$allocator@D@2@@std@@N@2@_K@Z
	?allocate@?$allocator@U_Container_proxy@std@@@std@@QEAAPEAU_Container_proxy@2@_K@Z
	?allocate@?$allocator@V?$basic_string@DU?$char_traits@D@std@@V?$allocator@D@2@@std@@@std@@QEAAPEAV?$basic_string@DU?$char_traits@D@std@@V?$allocator@D@2@@2@_K@Z
	?allocate@?$allocator@V?$shared_ptr@VTransport@@@std@@@std@@QEAAPEAV?$shared_ptr@VTransport@@@2@_K@Z
	?assign@?$_Narrow_char_traits@DH@std@@SAXAEADAEBD@Z
	?begin@?$initializer_list@V?$basic_string@DU?$char_traits@D@std@@V?$allocator@D@2@@std@@@std@@QEBAPEBV?$basic_string@DU?$char_traits@D@std@@V?$allocator@D@2@@2@XZ
	?begin@?$vector@U?$pair@V?$basic_string@DU?$char_traits@D@std@@V?$allocator@D@2@@std@@N@std@@V?$allocator@U?$pair@V?$basic_string@DU?$char_traits@D@std@@V?$allocator@D@2@@std@@N@std@@@2@@std@@QEAA?AV?$_Vector_iterator@V?$_Vector_val@U?$_Simple_types@U?$pair@V?$basic_string@DU?$char_traits@D@std@@V?$allocator@D@2@@std@@N@std@@@std@@@std@@@2@XZ
	?capacity@?$vector@U?$pair@V?$basic_string@DU?$char_traits@D@std@@V?$allocator@D@2@@std@@N@std@@V?$allocator@U?$pair@V?$basic_string@DU?$char_traits@D@std@@V?$allocator@D@2@@std@@N@std@@@2@@std@@QEBA_KXZ
	?capacity@?$vector@V?$shared_ptr@VTransport@@@std@@V?$allocator@V?$shared_ptr@VTransport@@@std@@@2@@std@@QEBA_KXZ
	?compare@?$_Narrow_char_traits@DH@std@@SAHQEBD0_K@Z
	?copy@?$_Char_traits@DH@std@@SAPEADQEADQEBD_K@Z
	?createByIndex@@YA?AV?$shared_ptr@VTransport@@@std@@H@Z
	?deallocate@?$_Default_allocator_traits@V?$allocator@U_Container_proxy@std@@@std@@@std@@SAXAEAV?$allocator@U_Container_proxy@std@@@2@QEAU_Container_proxy@2@_K@Z
	?deallocate@?$allocator@D@std@@QEAAXQEAD_K@Z
	?deallocate@?$allocator@U?$pair@V?$basic_string@DU?$char_traits@D@std@@V?$allocator@D@2@@std@@N@std@@@std@@QEAAXQEAU?$pair@V?$basic_string@DU?$char_traits@D@std@@V?$allocator@D@2@@std@@N@2@_K@Z
	?deallocate@?$allocator@V?$basic_string@DU?$char_traits@D@std@@V?$allocator@D@2@@std@@@std@@QEAAXQEAV?$basic_string@DU?$char_traits@D@std@@V?$allocator@D@2@@2@_K@Z
	?deallocate@?$allocator@V?$shared_ptr@VTransport@@@std@@@std@@QEAAXQEAV?$shared_ptr@VTransport@@@2@_K@Z
	?end@?$initializer_list@V?$basic_string@DU?$char_traits@D@std@@V?$allocator@D@2@@std@@@std@@QEBAPEBV?$basic_string@DU?$char_traits@D@std@@V?$allocator@D@2@@2@XZ
	?end@?$vector@U?$pair@V?$basic_string@DU?$char_traits@D@std@@V?$allocator@D@2@@std@@N@std@@V?$allocator@U?$pair@V?$basic_string@DU?$char_traits@D@std@@V?$allocator@D@2@@std@@N@std@@@2@@std@@QEAA?AV?$_Vector_iterator@V?$_Vector_val@U?$_Simple_types@U?$pair@V?$basic_string@DU?$char_traits@D@std@@V?$allocator@D@2@@std@@N@std@@@std@@@std@@@2@XZ
	?get@?$_Ptr_base@VTransport@@@std@@IEBAPEAVTransport@@XZ
	?isAir@@YA_NH@Z
	?isLand@@YA_NH@Z
	?length@?$_Narrow_char_traits@DH@std@@SA_KQEBD@Z
	?listAllNames@@YA?AV?$vector@V?$basic_string@DU?$char_traits@D@std@@V?$allocator@D@2@@std@@V?$allocator@V?$basic_string@DU?$char_traits@D@std@@V?$allocator@D@2@@std@@@2@@std@@XZ
	?max@?$numeric_limits@_J@std@@SA_JXZ
	?max_size@?$_Default_allocator_traits@V?$allocator@D@std@@@std@@SA_KAEBV?$allocator@D@2@@Z
	?max_size@?$_Default_allocator_traits@V?$allocator@U?$pair@V?$basic_string@DU?$char_traits@D@std@@V?$allocator@D@2@@std@@N@std@@@std@@@std@@SA_KAEBV?$allocator@U?$pair@V?$basic_string@DU?$char_traits@D@std@@V?$allocator@D@2@@std@@N@std@@@2@@Z
	?max_size@?$_Default_allocator_traits@V?$allocator@V?$basic_string@DU?$char_traits@D@std@@V?$allocator@D@2@@std@@@std@@@std@@SA_KAEBV?$allocator@V?$basic_string@DU?$char_traits@D@std@@V?$allocator@D@2@@std@@@2@@Z
	?max_size@?$_Default_allocator_traits@V?$allocator@V?$shared_ptr@VTransport@@@std@@@std@@@std@@SA_KAEBV?$allocator@V?$shared_ptr@VTransport@@@std@@@2@@Z
	?max_size@?$basic_string@DU?$char_traits@D@std@@V?$allocator@D@2@@std@@QEBA_KXZ
	?max_size@?$vector@U?$pair@V?$basic_string@DU?$char_traits@D@std@@V?$allocator@D@2@@std@@N@std@@V?$allocator@U?$pair@V?$basic_string@DU?$char_traits@D@std@@V?$allocator@D@2@@std@@N@std@@@2@@std@@QEBA_KXZ
	?max_size@?$vector@V?$basic_string@DU?$char_traits@D@std@@V?$allocator@D@2@@std@@V?$allocator@V?$basic_string@DU?$char_traits@D@std@@V?$allocator@D@2@@std@@@2@@std@@QEBA_KXZ
	?max_size@?$vector@V?$shared_ptr@VTransport@@@std@@V?$allocator@V?$shared_ptr@VTransport@@@std@@@2@@std@@QEBA_KXZ
	?name@Boots@@UEBA?AV?$basic_string@DU?$char_traits@D@std@@V?$allocator@D@2@@std@@XZ
	?name@Broom@@UEBA?AV?$basic_string@DU?$char_traits@D@std@@V?$allocator@D@2@@std@@XZ
	?name@Camel@@UEBA?AV?$basic_string@DU?$char_traits@D@std@@V?$allocator@D@2@@std@@XZ
	?name@Carpet@@UEBA?AV?$basic_string@DU?$char_traits@D@std@@V?$allocator@D@2@@std@@XZ
	?name@Centaur@@UEBA?AV?$basic_string@DU?$char_traits@D@std@@V?$allocator@D@2@@std@@XZ
	?name@Eagle@@UEBA?AV?$basic_string@DU?$char_traits@D@std@@V?$allocator@D@2@@std@@XZ
	?name@FastCamel@@UEBA?AV?$basic_string@DU?$char_traits@D@std@@V?$allocator@D@2@@std@@XZ
	?push_back@?$vector@V?$shared_ptr@VTransport@@@std@@V?$allocator@V?$shared_ptr@VTransport@@@std@@@2@@std@@QEAAXAEBV?$shared_ptr@VTransport@@@2@@Z
	?raceTime@Boots@@UEBANN@Z
	?raceTime@Broom@@UEBANN@Z
	?raceTime@Camel@@UEBANN@Z
	?raceTime@Carpet@@UEBANN@Z
	?raceTime@Centaur@@UEBANN@Z
	?raceTime@Eagle@@UEBANN@Z
	?raceTime@FastCamel@@UEBANN@Z
	?registerTransport@Race@@QEAAXAEBV?$shared_ptr@VTransport@@@std@@@Z
	?select_on_container_copy_construction@?$_Default_allocator_traits@V?$allocator@D@std@@@std@@SA?AV?$allocator@D@2@AEBV32@@Z
	?select_on_container_copy_construction@?$_Default_allocator_traits@V?$allocator@V?$basic_string@DU?$char_traits@D@std@@V?$allocator@D@2@@std@@@std@@@std@@SA?AV?$allocator@V?$basic_string@DU?$char_traits@D@std@@V?$allocator@D@2@@std@@@2@AEBV32@@Z
	?size@?$initializer_list@V?$basic_string@DU?$char_traits@D@std@@V?$allocator@D@2@@std@@@std@@QEBA_KXZ
	?size@?$vector@V?$shared_ptr@VTransport@@@std@@V?$allocator@V?$shared_ptr@VTransport@@@std@@@2@@std@@QEBA_KXZ
	?start@Race@@QEBA?AV?$vector@U?$pair@V?$basic_string@DU?$char_traits@D@std@@V?$allocator@D@2@@std@@N@std@@V?$allocator@U?$pair@V?$basic_string@DU?$char_traits@D@std@@V?$allocator@D@2@@std@@N@std@@@2@@std@@XZ
	?swap@?$basic_string@DU?$char_traits@D@std@@V?$allocator@D@2@@std@@QEAAXAEAV12@@Z
	?swap@?$pair@V?$basic_string@DU?$char_traits@D@std@@V?$allocator@D@2@@std@@N@std@@QEAAXAEAU12@@Z
	?what@exception@std@@UEBAPEBDXZ
